; Function Attrs: mustprogress nounwind uwtable
define dso_local void @_ZN4llvm5Value13clearMetadataEv(ptr noundef nonnull align 8 dereferenceable(24) %0) local_unnamed_addr #0 align 2 {
  %2 = alloca ptr, align 8
  %3 = getelementptr inbounds nuw i8, ptr %0, i64 4
  %4 = load i32, ptr %3, align 4
  %5 = and i32 %4, 536870912
  %.not = icmp eq i32 %5, 0
  br i1 %.not, label %13, label %6

6:                                                ; preds = %1
  %7 = tail call noundef nonnull align 8 dereferenceable(8) ptr @_ZNK4llvm5Value10getContextEv(ptr noundef nonnull align 8 dereferenceable(24) %0) #23
  %8 = load ptr, ptr %7, align 8
  %9 = getelementptr inbounds nuw i8, ptr %8, i64 2672
  store ptr %0, ptr %2, align 8
  %10 = call noundef zeroext i1 @_ZN4llvm12DenseMapBaseINS_8DenseMapIPKNS_5ValueENS_13MDAttachmentsENS_12DenseMapInfoIS4_vEENS_6detail12DenseMapPairIS4_S5_EEEES4_S5_S7_SA_E5eraseERKS4_(ptr noundef nonnull align 1 dereferenceable(1) %9, ptr noundef nonnull align 8 dereferenceable(8) %2)
  %11 = load i32, ptr %3, align 4
  %12 = and i32 %11, -536870913
  store i32 %12, ptr %3, align 4
  br label %13

13:                                               ; preds = %1, %6
  ret void
}